Certificate:
    Data:
        Version: 3 (0x2)
        Serial Number:
            be:3e:cc:a3:79:43:42:7a
    Signature Algorithm: sha1WithRSAEncryption
        Issuer: C=CN, ST=BJ, O=QQ, OU=YUN, CN=www.qcloud.com/emailAddress=qq@qq.com
        Validity
            Not Before: Jun  9 12:39:53 2013 GMT
            Not After : Jun  8 12:39:53 2016 GMT
        Subject: C=CN, ST=BJ, O=QQ, OU=YUN, CN=www.qcloud.com/emailAddress=qq@qq.com
        Subject Public Key Info:
            Public Key Algorithm: rsaEncryption
                Public-Key: (1024 bit)
                Modulus:
                    00:ed:e1:8f:9d:e9:90:b0:8e:7f:c0:7d:d7:84:34:
                    06:b7:a4:5d:44:6d:71:cf:58:71:cd:dd:91:a0:47:
                    61:97:31:30:9f:77:d3:cd:0a:fd:47:54:12:fd:df:
                    ba:79:c3:e8:f9:04:9e:f7:c7:c8:cf:72:e5:52:60:
                    86:37:8f:cf:16:b1:59:89:de:71:f8:bd:da:41:e1:
                    84:09:7e:05:15:d2:20:30:d8:9e:1e:88:93:33:79:
                    a6:e7:5c:a5:c4:b2:bf:ea:5c:c0:7f:e3:f2:9d:6c:
                    f5:ee:c9:52:3b:67:76:b6:e0:8f:d1:52:3b:c5:8d:
                    b4:28:32:06:67:e5:27:5b:01
                Exponent: 65537 (0x10001)
        X509v3 extensions:
            X509v3 Subject Key Identifier: 
                74:4D:96:19:6B:3D:CD:86:E5:6A:C1:2D:D8:2F:78:1A:29:2C:42:22
            X509v3 Authority Key Identifier: 
                keyid:74:4D:96:19:6B:3D:CD:86:E5:6A:C1:2D:D8:2F:78:1A:29:2C:42:22

            X509v3 Basic Constraints: 
                CA:TRUE
    Signature Algorithm: sha1WithRSAEncryption
         c6:77:65:ef:10:a6:52:b8:d9:88:b4:e5:a8:ee:34:9b:7c:27:
         fb:07:56:be:e4:20:c1:01:93:90:d9:de:e5:04:4d:76:3a:2e:
         6e:11:9f:e8:1f:39:97:29:8e:e8:96:03:6a:21:22:9b:34:bd:
         16:b3:40:bf:1c:57:b6:49:ea:df:5a:d6:c3:fc:ad:ea:9c:d3:
         41:a1:45:03:7a:be:3e:e1:bc:c2:2b:21:72:c2:0f:a6:72:f7:
         a7:9e:dc:74:7a:2b:6c:76:0c:11:c1:ff:a2:25:1b:ee:19:c9:
         b2:57:db:d5:d9:15:71:cd:02:dd:6c:a8:a8:dc:4b:57:ac:21:
         a7:28
-----BEGIN CERTIFICATE-----
MIICnjCCAgegAwIBAgIJAL4+zKN5Q0J6MA0GCSqGSIb3DQEBBQUAMGgxCzAJBgNV
BAYTAkNOMQswCQYDVQQIDAJCSjELMAkGA1UECgwCUVExDDAKBgNVBAsMA1lVTjEX
MBUGA1UEAwwOd3d3LnFjbG91ZC5jb20xGDAWBgkqhkiG9w0BCQEWCXFxQHFxLmNv
bTAeFw0xMzA2MDkxMjM5NTNaFw0xNjA2MDgxMjM5NTNaMGgxCzAJBgNVBAYTAkNO
MQswCQYDVQQIDAJCSjELMAkGA1UECgwCUVExDDAKBgNVBAsMA1lVTjEXMBUGA1UE
AwwOd3d3LnFjbG91ZC5jb20xGDAWBgkqhkiG9w0BCQEWCXFxQHFxLmNvbTCBnzAN
BgkqhkiG9w0BAQEFAAOBjQAwgYkCgYEA7eGPnemQsI5/wH3XhDQGt6RdRG1xz1hx
zd2RoEdhlzEwn3fTzQr9R1QS/d+6ecPo+QSe98fIz3LlUmCGN4/PFrFZid5x+L3a
QeGECX4FFdIgMNieHoiTM3mm51ylxLK/6lzAf+PynWz17slSO2d2tuCP0VI7xY20
KDIGZ+UnWwECAwEAAaNQME4wHQYDVR0OBBYEFHRNlhlrPc2G5WrBLdgveBopLEIi
MB8GA1UdIwQYMBaAFHRNlhlrPc2G5WrBLdgveBopLEIiMAwGA1UdEwQFMAMBAf8w
DQYJKoZIhvcNAQEFBQADgYEAxndl7xCmUrjZiLTlqO40m3wn+wdWvuQgwQGTkNne
5QRNdjoubhGf6B85lymO6JYDaiEimzS9FrNAvxxXtknq31rWw/yt6pzTQaFFA3q+
PuG8wishcsIPpnL3p57cdHorbHYMEcH/oiUb7hnJslfb1dkVcc0C3WyoqNxLV6wh
pyg=
-----END CERTIFICATE-----
