Certificate:
    Data:
        Version: 3 (0x2)
        Serial Number:
            be:3e:cc:a3:79:43:42:7b
    Signature Algorithm: sha1WithRSAEncryption
        Issuer: C=CN, ST=BJ, O=QQ, OU=YUN, CN=www.qcloud.com/emailAddress=qq@qq.com
        Validity
            Not Before: Jun  9 12:52:07 2013 GMT
            Not After : Jun  9 12:52:07 2014 GMT
        Subject: C=CN, ST=BJ, L=BJ, O=QQ, OU=YUN, CN=lj8175.qcloud.com/emailAddress=qq@qq.com
        Subject Public Key Info:
            Public Key Algorithm: rsaEncryption
                Public-Key: (1024 bit)
                Modulus:
                    00:bb:c0:75:ed:96:eb:71:ca:eb:1a:f2:5e:1f:cd:
                    c7:78:dc:a8:0b:bc:f6:44:2b:79:3c:ce:05:13:29:
                    fd:48:56:5f:df:77:4f:79:75:fd:75:7b:84:34:02:
                    66:cf:59:61:36:16:4a:48:b1:dc:7b:75:54:f4:48:
                    63:b1:57:28:fd:b0:6b:a4:0b:66:93:77:cd:7c:e8:
                    83:b0:d3:4e:96:50:f0:c0:89:0d:0a:3b:c9:9f:3f:
                    36:ec:9f:ab:0a:a7:43:0a:3c:01:17:58:3d:1b:5b:
                    ba:1a:e7:b1:83:b0:57:59:4c:fd:f8:b9:ff:d7:0d:
                    29:36:fc:c6:58:96:19:f2:83
                Exponent: 65537 (0x10001)
        X509v3 extensions:
            X509v3 Basic Constraints: 
                CA:FALSE
            Netscape Comment: 
                OpenSSL Generated Certificate
            X509v3 Subject Key Identifier: 
                C2:A8:77:5D:D2:18:3F:DA:02:FF:58:E3:E1:E2:F0:B6:C8:35:59:74
            X509v3 Authority Key Identifier: 
                keyid:74:4D:96:19:6B:3D:CD:86:E5:6A:C1:2D:D8:2F:78:1A:29:2C:42:22

    Signature Algorithm: sha1WithRSAEncryption
         86:49:8b:4b:29:29:3c:a9:70:f4:46:37:bf:c0:30:29:83:3c:
         55:1d:43:d7:f0:31:02:f1:95:2f:b2:68:04:01:f2:87:02:c8:
         36:8e:7c:4a:32:ac:39:c7:0e:5c:90:4b:4b:85:8a:52:63:de:
         da:bd:68:c1:de:cf:72:2d:bf:8a:de:11:84:ec:47:92:19:ca:
         e8:e8:42:05:dc:32:98:49:1f:85:0e:76:9a:88:98:35:f4:55:
         ce:e2:ee:3e:e8:b6:93:b5:70:0a:5d:52:18:2b:05:40:14:50:
         d8:a1:cd:b6:03:8a:27:3e:77:ba:41:75:bd:80:f0:85:34:f2:
         22:33
-----BEGIN CERTIFICATE-----
MIIC2TCCAkKgAwIBAgIJAL4+zKN5Q0J7MA0GCSqGSIb3DQEBBQUAMGgxCzAJBgNV
BAYTAkNOMQswCQYDVQQIDAJCSjELMAkGA1UECgwCUVExDDAKBgNVBAsMA1lVTjEX
MBUGA1UEAwwOd3d3LnFjbG91ZC5jb20xGDAWBgkqhkiG9w0BCQEWCXFxQHFxLmNv
bTAeFw0xMzA2MDkxMjUyMDdaFw0xNDA2MDkxMjUyMDdaMHgxCzAJBgNVBAYTAkNO
MQswCQYDVQQIDAJCSjELMAkGA1UEBwwCQkoxCzAJBgNVBAoMAlFRMQwwCgYDVQQL
DANZVU4xGjAYBgNVBAMMEWxqODE3NS5xY2xvdWQuY29tMRgwFgYJKoZIhvcNAQkB
FglxcUBxcS5jb20wgZ8wDQYJKoZIhvcNAQEBBQADgY0AMIGJAoGBALvAde2W63HK
6xryXh/Nx3jcqAu89kQreTzOBRMp/UhWX993T3l1/XV7hDQCZs9ZYTYWSkix3Ht1
VPRIY7FXKP2wa6QLZpN3zXzog7DTTpZQ8MCJDQo7yZ8/NuyfqwqnQwo8ARdYPRtb
uhrnsYOwV1lM/fi5/9cNKTb8xliWGfKDAgMBAAGjezB5MAkGA1UdEwQCMAAwLAYJ
YIZIAYb4QgENBB8WHU9wZW5TU0wgR2VuZXJhdGVkIENlcnRpZmljYXRlMB0GA1Ud
DgQWBBTCqHdd0hg/2gL/WOPh4vC2yDVZdDAfBgNVHSMEGDAWgBR0TZYZaz3NhuVq
wS3YL3gaKSxCIjANBgkqhkiG9w0BAQUFAAOBgQCGSYtLKSk8qXD0Rje/wDApgzxV
HUPX8DEC8ZUvsmgEAfKHAsg2jnxKMqw5xw5ckEtLhYpSY97avWjB3s9yLb+K3hGE
7EeSGcro6EIF3DKYSR+FDnaaiJg19FXO4u4+6LaTtXAKXVIYKwVAFFDYoc22A4on
Pne6QXW9gPCFNPIiMw==
-----END CERTIFICATE-----
